target datalayout = "e-m:e-p270:32:32-p271:32:32-p272:64:64-i64:64-i128:128-f80:128-n8:16:32:64-S128"
target triple = "x86_64-pc-linux-gnu"

%class.ArchiveBuilder = type { ptr, ptr, ptr, ptr, i32, i64, ptr, ptr, ptr, ptr, ptr, ptr, i64, %class.ReservedSpace, %class.VirtualSpace, %class.DumpRegion, %class.DumpRegion, %class.CHeapBitMap, %class.CHeapBitMap, %class.CHeapBitMap, %"class.ArchiveBuilder::SourceObjList", %"class.ArchiveBuilder::SourceObjList", %class.ResizeableResourceHashtable, %class.ResizeableResourceHashtable.0, ptr, ptr, i32, %class.DumpAllocStats, i64, i64, i64 }
%class.ReservedSpace = type <{ ptr, i64, i64, i64, i64, i8, [3 x i8], i32, i8, [7 x i8] }>
%class.VirtualSpace = type { ptr, ptr, ptr, ptr, i8, i8, ptr, ptr, ptr, ptr, ptr, ptr, i64, i64, i64 }
%class.DumpRegion = type { ptr, ptr, ptr, ptr, i64, i8, ptr, ptr }
%class.CHeapBitMap = type <{ %class.GrowableBitMap, i8, [7 x i8] }>
%class.GrowableBitMap = type { %class.BitMap }
%class.BitMap = type { ptr, i64 }
%"class.ArchiveBuilder::SourceObjList" = type { i64, ptr, %class.CHeapBitMap }
%class.ResizeableResourceHashtable = type { %class.ResourceHashtableBase.base, i32 }
%class.ResourceHashtableBase.base = type <{ %class.ResizeableResourceHashtableStorage, i32 }>
%class.ResizeableResourceHashtableStorage = type { i32, ptr }
%class.ResizeableResourceHashtable.0 = type { %class.ResourceHashtableBase.base.3, i32 }
%class.ResourceHashtableBase.base.3 = type <{ %class.ResizeableResourceHashtableStorage.2, i32 }>
%class.ResizeableResourceHashtableStorage.2 = type { i32, ptr }
%class.DumpAllocStats = type { %class.CompactHashtableStats, %class.CompactHashtableStats, [2 x [23 x i32]], [2 x [23 x i32]], i32, i32, i32, i32, i32, i32, i32, i32, i32 }
%class.CompactHashtableStats = type { i32, i32, i32, i32 }
%class.GrowableArrayBase = type { i32, i32 }
%class.GrowableArrayView.6 = type { %class.GrowableArrayBase, ptr }
%class.GrowableArrayView.9 = type { %class.GrowableArrayBase, ptr }
%"class.MetaspaceClosure::Ref" = type { ptr, i32, ptr, ptr }
%"class.MetaspaceClosure::MSORef" = type { %"class.MetaspaceClosure::Ref", ptr }
%"class.MetaspaceClosure::MSORef.65" = type { %"class.MetaspaceClosure::Ref", ptr }

; Function Attrs: mustprogress nounwind uwtable
define linkonce_odr hidden void @_ZN16MetaspaceClosure3RefC2ENS_11WritabilityE(ptr noundef nonnull align 8 dereferenceable(32) %0, i32 noundef %1) unnamed_addr #1 comdat align 2 {
  %3 = alloca ptr, align 8
  %4 = alloca i32, align 4
  store ptr %0, ptr %3, align 8
  store i32 %1, ptr %4, align 4
  %5 = load ptr, ptr %3, align 8
  store ptr getelementptr inbounds inrange(-16, 72) ({ [11 x ptr] }, ptr @_ZTVN16MetaspaceClosure3RefE, i32 0, i32 0, i32 2), ptr %5, align 8
  %6 = getelementptr inbounds %"class.MetaspaceClosure::Ref", ptr %5, i32 0, i32 1
  %7 = load i32, ptr %4, align 4
  store i32 %7, ptr %6, align 8
  %8 = getelementptr inbounds %"class.MetaspaceClosure::Ref", ptr %5, i32 0, i32 2
  store ptr null, ptr %8, align 8
  %9 = getelementptr inbounds %"class.MetaspaceClosure::Ref", ptr %5, i32 0, i32 3
  store ptr null, ptr %9, align 8
  ret void
}

; Function Attrs: mustprogress nounwind uwtable
define linkonce_odr hidden void @_ZN16MetaspaceClosure6MSORefI5KlassEC2EPPS1_NS_11WritabilityE(ptr noundef nonnull align 8 dereferenceable(40) %0, ptr noundef %1, i32 noundef %2) unnamed_addr #1 comdat align 2 {
  %4 = alloca ptr, align 8
  %5 = alloca ptr, align 8
  %6 = alloca i32, align 4
  store ptr %0, ptr %4, align 8
  store ptr %1, ptr %5, align 8
  store i32 %2, ptr %6, align 4
  %7 = load ptr, ptr %4, align 8
  %8 = load i32, ptr %6, align 4
  call void @_ZN16MetaspaceClosure3RefC2ENS_11WritabilityE(ptr noundef nonnull align 8 dereferenceable(32) %7, i32 noundef %8)
  store ptr getelementptr inbounds inrange(-16, 72) ({ [11 x ptr] }, ptr @_ZTVN16MetaspaceClosure6MSORefI5KlassEE, i32 0, i32 0, i32 2), ptr %7, align 8
  %9 = getelementptr inbounds %"class.MetaspaceClosure::MSORef.65", ptr %7, i32 0, i32 1
  %10 = load ptr, ptr %5, align 8
  store ptr %10, ptr %9, align 8
  ret void
}

; Function Attrs: mustprogress nounwind uwtable
define linkonce_odr hidden void @_ZN16MetaspaceClosure6MSORefI6SymbolEC2EPPS1_NS_11WritabilityE(ptr noundef nonnull align 8 dereferenceable(40) %0, ptr noundef %1, i32 noundef %2) unnamed_addr #1 comdat align 2 {
  %4 = alloca ptr, align 8
  %5 = alloca ptr, align 8
  %6 = alloca i32, align 4
  store ptr %0, ptr %4, align 8
  store ptr %1, ptr %5, align 8
  store i32 %2, ptr %6, align 4
  %7 = load ptr, ptr %4, align 8
  %8 = load i32, ptr %6, align 4
  call void @_ZN16MetaspaceClosure3RefC2ENS_11WritabilityE(ptr noundef nonnull align 8 dereferenceable(32) %7, i32 noundef %8)
  store ptr getelementptr inbounds inrange(-16, 72) ({ [11 x ptr] }, ptr @_ZTVN16MetaspaceClosure6MSORefI6SymbolEE, i32 0, i32 0, i32 2), ptr %7, align 8
  %9 = getelementptr inbounds %"class.MetaspaceClosure::MSORef", ptr %7, i32 0, i32 1
  %10 = load ptr, ptr %5, align 8
  store ptr %10, ptr %9, align 8
  ret void
}

; Function Attrs: mustprogress nounwind uwtable
define linkonce_odr hidden void @_ZN16MetaspaceClosure13push_with_refINS_6MSORefI5KlassEES2_EEvPPT0_NS_11WritabilityE(ptr noundef nonnull align 8 dereferenceable(32) %0, ptr noundef %1, i32 noundef %2) #1 comdat align 2 {
  %4 = alloca i64, align 8
  %5 = alloca i8, align 1
  %6 = alloca i64, align 8
  %7 = alloca ptr, align 8
  %8 = alloca ptr, align 8
  %9 = alloca i32, align 4
  store ptr %0, ptr %7, align 8
  store ptr %1, ptr %8, align 8
  store i32 %2, ptr %9, align 4
  %10 = load ptr, ptr %7, align 8
  store i64 40, ptr %6, align 8
  %11 = load i64, ptr %6, align 8
  store i64 %11, ptr %4, align 8
  store i8 24, ptr %5, align 1
  %12 = load i64, ptr %4, align 8
  %13 = load i8, ptr %5, align 1
  %14 = call noundef ptr @_Z12AllocateHeapm8MEMFLAGSN17AllocFailStrategy13AllocFailEnumE(i64 noundef %12, i8 noundef zeroext %13, i32 noundef 0) #11
  %15 = load ptr, ptr %8, align 8
  %16 = load i32, ptr %9, align 4
  call void @_ZN16MetaspaceClosure6MSORefI5KlassEC2EPPS1_NS_11WritabilityE(ptr noundef nonnull align 8 dereferenceable(40) %14, ptr noundef %15, i32 noundef %16)
  call void @_ZN16MetaspaceClosure9push_implEPNS_3RefE(ptr noundef nonnull align 8 dereferenceable(32) %10, ptr noundef %14)
  ret void
}

; Function Attrs: mustprogress nounwind uwtable
define linkonce_odr hidden void @_ZN16MetaspaceClosure13push_with_refINS_6MSORefI6SymbolEES2_EEvPPT0_NS_11WritabilityE(ptr noundef nonnull align 8 dereferenceable(32) %0, ptr noundef %1, i32 noundef %2) #1 comdat align 2 {
  %4 = alloca i64, align 8
  %5 = alloca i8, align 1
  %6 = alloca i64, align 8
  %7 = alloca ptr, align 8
  %8 = alloca ptr, align 8
  %9 = alloca i32, align 4
  store ptr %0, ptr %7, align 8
  store ptr %1, ptr %8, align 8
  store i32 %2, ptr %9, align 4
  %10 = load ptr, ptr %7, align 8
  store i64 40, ptr %6, align 8
  %11 = load i64, ptr %6, align 8
  store i64 %11, ptr %4, align 8
  store i8 24, ptr %5, align 1
  %12 = load i64, ptr %4, align 8
  %13 = load i8, ptr %5, align 1
  %14 = call noundef ptr @_Z12AllocateHeapm8MEMFLAGSN17AllocFailStrategy13AllocFailEnumE(i64 noundef %12, i8 noundef zeroext %13, i32 noundef 0) #11
  %15 = load ptr, ptr %8, align 8
  %16 = load i32, ptr %9, align 4
  call void @_ZN16MetaspaceClosure6MSORefI6SymbolEC2EPPS1_NS_11WritabilityE(ptr noundef nonnull align 8 dereferenceable(40) %14, ptr noundef %15, i32 noundef %16)
  call void @_ZN16MetaspaceClosure9push_implEPNS_3RefE(ptr noundef nonnull align 8 dereferenceable(32) %10, ptr noundef %14)
  ret void
}

; Function Attrs: mustprogress nounwind uwtable
define linkonce_odr hidden void @_ZN16MetaspaceClosure4pushI5KlassEEvPPT_NS_11WritabilityE(ptr noundef nonnull align 8 dereferenceable(32) %0, ptr noundef %1, i32 noundef %2) #1 comdat align 2 {
  %4 = alloca ptr, align 8
  %5 = alloca ptr, align 8
  %6 = alloca i32, align 4
  store ptr %0, ptr %4, align 8
  store ptr %1, ptr %5, align 8
  store i32 %2, ptr %6, align 4
  %7 = load ptr, ptr %4, align 8
  %8 = load ptr, ptr %5, align 8
  %9 = load i32, ptr %6, align 4
  call void @_ZN16MetaspaceClosure13push_with_refINS_6MSORefI5KlassEES2_EEvPPT0_NS_11WritabilityE(ptr noundef nonnull align 8 dereferenceable(32) %7, ptr noundef %8, i32 noundef %9)
  ret void
}

; Function Attrs: mustprogress nounwind uwtable
define linkonce_odr hidden noundef ptr @_ZNK17GrowableArrayViewIP5KlassE6adr_atEi(ptr noundef nonnull align 8 dereferenceable(16) %0, i32 noundef %1) #1 comdat align 2 {
  %3 = alloca ptr, align 8
  %4 = alloca i32, align 4
  store ptr %0, ptr %3, align 8
  store i32 %1, ptr %4, align 4
  %5 = load ptr, ptr %3, align 8
  %6 = getelementptr inbounds %class.GrowableArrayView.6, ptr %5, i32 0, i32 1
  %7 = load ptr, ptr %6, align 8
  %8 = load i32, ptr %4, align 4
  %9 = sext i32 %8 to i64
  %10 = getelementptr inbounds ptr, ptr %7, i64 %9
  ret ptr %10
}

; Function Attrs: mustprogress nounwind uwtable
define linkonce_odr hidden void @_ZN16MetaspaceClosure4pushI6SymbolEEvPPT_NS_11WritabilityE(ptr noundef nonnull align 8 dereferenceable(32) %0, ptr noundef %1, i32 noundef %2) #1 comdat align 2 {
  %4 = alloca ptr, align 8
  %5 = alloca ptr, align 8
  %6 = alloca i32, align 4
  store ptr %0, ptr %4, align 8
  store ptr %1, ptr %5, align 8
  store i32 %2, ptr %6, align 4
  %7 = load ptr, ptr %4, align 8
  %8 = load ptr, ptr %5, align 8
  %9 = load i32, ptr %6, align 4
  call void @_ZN16MetaspaceClosure13push_with_refINS_6MSORefI6SymbolEES2_EEvPPT0_NS_11WritabilityE(ptr noundef nonnull align 8 dereferenceable(32) %7, ptr noundef %8, i32 noundef %9)
  ret void
}

; Function Attrs: mustprogress nounwind uwtable
define linkonce_odr hidden noundef ptr @_ZNK17GrowableArrayViewIP6SymbolE6adr_atEi(ptr noundef nonnull align 8 dereferenceable(16) %0, i32 noundef %1) #1 comdat align 2 {
  %3 = alloca ptr, align 8
  %4 = alloca i32, align 4
  store ptr %0, ptr %3, align 8
  store i32 %1, ptr %4, align 4
  %5 = load ptr, ptr %3, align 8
  %6 = getelementptr inbounds %class.GrowableArrayView.9, ptr %5, i32 0, i32 1
  %7 = load ptr, ptr %6, align 8
  %8 = load i32, ptr %4, align 4
  %9 = sext i32 %8 to i64
  %10 = getelementptr inbounds ptr, ptr %7, i64 %9
  ret ptr %10
}

; Function Attrs: mustprogress nounwind uwtable
define linkonce_odr hidden noundef i32 @_ZNK17GrowableArrayBase6lengthEv(ptr noundef nonnull align 4 dereferenceable(8) %0) #1 comdat align 2 {
  %2 = alloca ptr, align 8
  store ptr %0, ptr %2, align 8
  %3 = load ptr, ptr %2, align 8
  %4 = getelementptr inbounds %class.GrowableArrayBase, ptr %3, i32 0, i32 0
  %5 = load i32, ptr %4, align 4
  ret i32 %5
}

; Function Attrs: mustprogress nounwind uwtable
define hidden void @_ZN14ArchiveBuilder20iterate_sorted_rootsEP16MetaspaceClosure(ptr noundef nonnull align 8 dereferenceable(1080) %0, ptr noundef %1) #1 align 2 {
  %3 = alloca ptr, align 8
  %4 = alloca ptr, align 8
  %5 = alloca i32, align 4
  %6 = alloca i32, align 4
  %7 = alloca i32, align 4
  %8 = alloca i32, align 4
  store ptr %0, ptr %3, align 8
  store ptr %1, ptr %4, align 8
  %9 = load ptr, ptr %3, align 8
  %10 = getelementptr inbounds %class.ArchiveBuilder, ptr %9, i32 0, i32 25
  %11 = load ptr, ptr %10, align 8
  %12 = call noundef i32 @_ZNK17GrowableArrayBase6lengthEv(ptr noundef nonnull align 4 dereferenceable(8) %11)
  store i32 %12, ptr %5, align 4
  store i32 0, ptr %6, align 4
  br label %13

13:                                               ; preds = %23, %2
  %14 = load i32, ptr %6, align 4
  %15 = load i32, ptr %5, align 4
  %16 = icmp slt i32 %14, %15
  br i1 %16, label %17, label %26

17:                                               ; preds = %13
  %18 = load ptr, ptr %4, align 8
  %19 = getelementptr inbounds %class.ArchiveBuilder, ptr %9, i32 0, i32 25
  %20 = load ptr, ptr %19, align 8
  %21 = load i32, ptr %6, align 4
  %22 = call noundef ptr @_ZNK17GrowableArrayViewIP6SymbolE6adr_atEi(ptr noundef nonnull align 8 dereferenceable(16) %20, i32 noundef %21)
  call void @_ZN16MetaspaceClosure4pushI6SymbolEEvPPT_NS_11WritabilityE(ptr noundef nonnull align 8 dereferenceable(32) %18, ptr noundef %22, i32 noundef 2)
  br label %23

23:                                               ; preds = %17
  %24 = load i32, ptr %6, align 4
  %25 = add nsw i32 %24, 1
  store i32 %25, ptr %6, align 4
  br label %13, !llvm.loop !8

26:                                               ; preds = %13
  %27 = getelementptr inbounds %class.ArchiveBuilder, ptr %9, i32 0, i32 24
  %28 = load ptr, ptr %27, align 8
  %29 = call noundef i32 @_ZNK17GrowableArrayBase6lengthEv(ptr noundef nonnull align 4 dereferenceable(8) %28)
  store i32 %29, ptr %7, align 4
  store i32 0, ptr %8, align 4
  br label %30

30:                                               ; preds = %40, %26
  %31 = load i32, ptr %8, align 4
  %32 = load i32, ptr %7, align 4
  %33 = icmp slt i32 %31, %32
  br i1 %33, label %34, label %43

34:                                               ; preds = %30
  %35 = load ptr, ptr %4, align 8
  %36 = getelementptr inbounds %class.ArchiveBuilder, ptr %9, i32 0, i32 24
  %37 = load ptr, ptr %36, align 8
  %38 = load i32, ptr %8, align 4
  %39 = call noundef ptr @_ZNK17GrowableArrayViewIP5KlassE6adr_atEi(ptr noundef nonnull align 8 dereferenceable(16) %37, i32 noundef %38)
  call void @_ZN16MetaspaceClosure4pushI5KlassEEvPPT_NS_11WritabilityE(ptr noundef nonnull align 8 dereferenceable(32) %35, ptr noundef %39, i32 noundef 2)
  br label %40

40:                                               ; preds = %34
  %41 = load i32, ptr %8, align 4
  %42 = add nsw i32 %41, 1
  store i32 %42, ptr %8, align 4
  br label %30, !llvm.loop !9

43:                                               ; preds = %30
  %44 = load ptr, ptr %4, align 8
  %45 = load ptr, ptr %9, align 8
  %46 = getelementptr inbounds ptr, ptr %45, i64 0
  %47 = load ptr, ptr %46, align 8
  call void %47(ptr noundef nonnull align 8 dereferenceable(1080) %9, ptr noundef %44)
  ret void
}