; Function Attrs: mustprogress nounwind uwtable
define hidden void @_ZN14ArchiveBuilder20iterate_sorted_rootsEP16MetaspaceClosure(ptr noundef nonnull align 8 dereferenceable(1080) %0, ptr noundef %1) local_unnamed_addr #1 align 2 {
  %3 = getelementptr inbounds i8, ptr %0, i64 608
  %4 = load ptr, ptr %3, align 8
  %5 = load i32, ptr %4, align 4
  %6 = icmp sgt i32 %5, 0
  br i1 %6, label %.lr.ph.preheader, label %._crit_edge

.lr.ph.preheader:                                 ; preds = %2
  %wide.trip.count = zext nneg i32 %5 to i64
  br label %.lr.ph

.lr.ph:                                           ; preds = %.lr.ph.preheader, %.lr.ph
  %indvars.iv = phi i64 [ 0, %.lr.ph.preheader ], [ %indvars.iv.next, %.lr.ph ]
  %7 = load ptr, ptr %3, align 8
  %8 = getelementptr inbounds i8, ptr %7, i64 8
  %9 = load ptr, ptr %8, align 8
  %10 = getelementptr inbounds ptr, ptr %9, i64 %indvars.iv
  %11 = tail call noundef ptr @_Z12AllocateHeapm8MEMFLAGSN17AllocFailStrategy13AllocFailEnumE(i64 noundef 40, i8 noundef zeroext 24, i32 noundef 0) #19
  %12 = getelementptr inbounds i8, ptr %11, i64 8
  store i32 2, ptr %12, align 8
  %13 = getelementptr inbounds i8, ptr %11, i64 16
  tail call void @llvm.memset.p0.i64(ptr noundef nonnull align 8 dereferenceable(16) %13, i8 0, i64 16, i1 false)
  store ptr getelementptr inbounds inrange(-16, 72) (i8, ptr @_ZTVN16MetaspaceClosure6MSORefI6SymbolEE, i64 16), ptr %11, align 8
  %14 = getelementptr inbounds i8, ptr %11, i64 32
  store ptr %10, ptr %14, align 8
  tail call void @_ZN16MetaspaceClosure9push_implEPNS_3RefE(ptr noundef nonnull align 8 dereferenceable(32) %1, ptr noundef nonnull %11) #19
  %indvars.iv.next = add nuw nsw i64 %indvars.iv, 1
  %exitcond.not = icmp eq i64 %indvars.iv.next, %wide.trip.count
  br i1 %exitcond.not, label %._crit_edge, label %.lr.ph, !llvm.loop !16

._crit_edge:                                      ; preds = %.lr.ph, %2
  %15 = getelementptr inbounds i8, ptr %0, i64 600
  %16 = load ptr, ptr %15, align 8
  %17 = load i32, ptr %16, align 4
  %18 = icmp sgt i32 %17, 0
  br i1 %18, label %.lr.ph15.preheader, label %._crit_edge16

.lr.ph15.preheader:                               ; preds = %._crit_edge
  %wide.trip.count21 = zext nneg i32 %17 to i64
  br label %.lr.ph15

.lr.ph15:                                         ; preds = %.lr.ph15.preheader, %.lr.ph15
  %indvars.iv18 = phi i64 [ 0, %.lr.ph15.preheader ], [ %indvars.iv.next19, %.lr.ph15 ]
  %19 = load ptr, ptr %15, align 8
  %20 = getelementptr inbounds i8, ptr %19, i64 8
  %21 = load ptr, ptr %20, align 8
  %22 = getelementptr inbounds ptr, ptr %21, i64 %indvars.iv18
  %23 = tail call noundef ptr @_Z12AllocateHeapm8MEMFLAGSN17AllocFailStrategy13AllocFailEnumE(i64 noundef 40, i8 noundef zeroext 24, i32 noundef 0) #19
  %24 = getelementptr inbounds i8, ptr %23, i64 8
  store i32 2, ptr %24, align 8
  %25 = getelementptr inbounds i8, ptr %23, i64 16
  tail call void @llvm.memset.p0.i64(ptr noundef nonnull align 8 dereferenceable(16) %25, i8 0, i64 16, i1 false)
  store ptr getelementptr inbounds inrange(-16, 72) (i8, ptr @_ZTVN16MetaspaceClosure6MSORefI5KlassEE, i64 16), ptr %23, align 8
  %26 = getelementptr inbounds i8, ptr %23, i64 32
  store ptr %22, ptr %26, align 8
  tail call void @_ZN16MetaspaceClosure9push_implEPNS_3RefE(ptr noundef nonnull align 8 dereferenceable(32) %1, ptr noundef nonnull %23) #19
  %indvars.iv.next19 = add nuw nsw i64 %indvars.iv18, 1
  %exitcond22.not = icmp eq i64 %indvars.iv.next19, %wide.trip.count21
  br i1 %exitcond22.not, label %._crit_edge16, label %.lr.ph15, !llvm.loop !17

._crit_edge16:                                    ; preds = %.lr.ph15, %._crit_edge
  %27 = load ptr, ptr %0, align 8
  %28 = load ptr, ptr %27, align 8
  tail call void %28(ptr noundef nonnull align 8 dereferenceable(1080) %0, ptr noundef %1) #19
  ret void
}